(dp1
S'files'
p2
(dp3
S'DAO'
p4
(dp5
S'index'
p6
(dp7
S'html_filename'
p8
S'DAO.html'
p9
sS'name'
p10
g4
sS'nums'
p11
ccopy_reg
_reconstructor
p12
(ccoverage.results
Numbers
p13
c__builtin__
object
p14
NtRp15
(dp16
S'n_files'
p17
I1
sS'n_branches'
p18
I0
sS'n_statements'
p19
I69
sS'n_excluded'
p20
I0
sS'n_partial_branches'
p21
I0
sS'n_missing'
p22
I45
sS'n_missing_branches'
p23
I0
sbssS'hash'
p24
S'e\xc6\x15N\xcb\xb8W\xfaG\xee\xfa\xb7\r*;\xb8'
p25
ssS'MySQLdb_constants_FIELD_TYPE'
p26
(dp27
g6
(dp28
g8
S'MySQLdb_constants_FIELD_TYPE.html'
p29
sg10
S'MySQLdb.constants.FIELD_TYPE'
p30
sg11
g12
(g13
g14
NtRp31
(dp32
g17
I1
sg18
I0
sg19
I29
sg20
I0
sg21
I0
sg22
I0
sg23
I0
sbssg24
S'\xb6\xc0\xe9F$\x84\x0c\x07\xd7\xbe\xa8\xc9\xd2\xd2)\x13'
p33
ssS'numpy_fft_fftpack'
p34
(dp35
g6
(dp36
g8
S'numpy_fft_fftpack.html'
p37
sg10
S'numpy.fft.fftpack'
p38
sg11
g12
(g13
g14
NtRp39
(dp40
g17
I1
sg18
I0
sg19
I109
sg20
I0
sg21
I0
sg22
I86
sg23
I0
sbssg24
S'\xf9\xde@$c[$\xef}zV\xa8p\xd5J\x0e'
p41
ssS'numbers'
p42
(dp43
g6
(dp44
g8
S'numbers.html'
p45
sg10
g42
sg11
g12
(g13
g14
NtRp46
(dp47
g17
I1
sg18
I0
sg19
I132
sg20
I0
sg21
I0
sg22
I132
sg23
I0
sbssg24
S'N1G\xf5\x07\xa6\xe0\xbax\x91\x92\xe0\x96\xb3\xf3\x88'
p48
ssS'redis'
p49
(dp50
g6
(dp51
g8
S'redis.html'
p52
sg10
g49
sg11
g12
(g13
g14
NtRp53
(dp54
g17
I1
sg18
I0
sg19
I7
sg20
I0
sg21
I0
sg22
I0
sg23
I0
sbssg24
S'8\xfd\x0c\xd0\x12\xe0\x88~\xf1\xeeXr\x9cN\xce\x14'
p55
ssS'numpy_version'
p56
(dp57
g6
(dp58
g8
S'numpy_version.html'
p59
sg10
S'numpy.version'
p60
sg11
g12
(g13
g14
NtRp61
(dp62
g17
I1
sg18
I0
sg19
I7
sg20
I0
sg21
I0
sg22
I1
sg23
I0
sbssg24
S'\x99\\\xcf\x8a\xe1\x03\x89\x80@\x1dB\xb5\r\x1b\nv'
p63
ssS'numpy_ctypeslib'
p64
(dp65
g6
(dp66
g8
S'numpy_ctypeslib.html'
p67
sg10
S'numpy.ctypeslib'
p68
sg11
g12
(g13
g14
NtRp69
(dp70
g17
I1
sg18
I0
sg19
I187
sg20
I0
sg21
I0
sg22
I144
sg23
I0
sbssg24
S'`:\xbbZ\x13\x98Y\xcas\xfd\xff\xebjE\x90)'
p71
ssS'numpy_core_defchararray'
p72
(dp73
g6
(dp74
g8
S'numpy_core_defchararray.html'
p75
sg10
S'numpy.core.defchararray'
p76
sg11
g12
(g13
g14
NtRp77
(dp78
g17
I1
sg18
I0
sg19
I364
sg20
I0
sg21
I0
sg22
I238
sg23
I0
sbssg24
S'Cm?\xf0Y\xa1\x90\x8c $1\xb9\xd7\x00\xd1{'
p79
ssS'couchdb_json'
p80
(dp81
g6
(dp82
g8
S'couchdb_json.html'
p83
sg10
S'couchdb.json'
p84
sg11
g12
(g13
g14
NtRp85
(dp86
g17
I1
sg18
I0
sg19
I55
sg20
I0
sg21
I0
sg22
I43
sg23
I0
sbssg24
S'\x82\xdfh\xb7\xf7\xee\x7f\xc6\xb4\xda\xe5z\xab\x17\xe9t'
p87
ssS'twitter_text_autolink'
p88
(dp89
g6
(dp90
g8
S'twitter_text_autolink.html'
p91
sg10
S'twitter_text.autolink'
p92
sg11
g12
(g13
g14
NtRp93
(dp94
g17
I1
sg18
I0
sg19
I174
sg20
I0
sg21
I0
sg22
I136
sg23
I0
sbssg24
S'a\xeb\xcb\xa0\xb5\x1f\xe3\xa6\x1d\xe7-\x8a\xf8\x97\x9a\xbd'
p95
ssS'sgmllib'
p96
(dp97
g6
(dp98
g8
S'sgmllib.html'
p99
sg10
g96
sg11
g12
(g13
g14
NtRp100
(dp101
g17
I1
sg18
I0
sg19
I365
sg20
I0
sg21
I0
sg22
I365
sg23
I0
sbssg24
S'\x00Z3C\xd3tR\x17T\xbf\x01\xd3\x1d\xff\xd7\xeb'
p102
ssS'numpy_ma_extras'
p103
(dp104
g6
(dp105
g8
S'numpy_ma_extras.html'
p106
sg10
S'numpy.ma.extras'
p107
sg11
g12
(g13
g14
NtRp108
(dp109
g17
I1
sg18
I0
sg19
I610
sg20
I0
sg21
I0
sg22
I527
sg23
I0
sbssg24
S'9W\x8d~\xf2J\x9e\xdc\xc7M\xd2\x92<\xb8\xc1i'
p110
ssS'twitter_text_validation'
p111
(dp112
g6
(dp113
g8
S'twitter_text_validation.html'
p114
sg10
S'twitter_text.validation'
p115
sg11
g12
(g13
g14
NtRp116
(dp117
g17
I1
sg18
I0
sg19
I68
sg20
I0
sg21
I0
sg22
I52
sg23
I0
sbssg24
S'\xb4\x86m\xafr_u\xca\x07\xb1\r"\x88\x0f;\xda'
p118
ssS'numpy_polynomial_polyutils'
p119
(dp120
g6
(dp121
g8
S'numpy_polynomial_polyutils.html'
p122
sg10
S'numpy.polynomial.polyutils'
p123
sg11
g12
(g13
g14
NtRp124
(dp125
g17
I1
sg18
I0
sg19
I67
sg20
I0
sg21
I0
sg22
I48
sg23
I0
sbssg24
S'\xf9\xd0\xda#\x93\xcd\xcf\x91Z\xbd\xe5\xd9}\x8e\xe7\xf7'
p126
ssS'couchdb_http'
p127
(dp128
g6
(dp129
g8
S'couchdb_http.html'
p130
sg10
S'couchdb.http'
p131
sg11
g12
(g13
g14
NtRp132
(dp133
g17
I1
sg18
I0
sg19
I388
sg20
I0
sg21
I0
sg22
I319
sg23
I0
sbssg24
S"\xb1\xe0\xbb\xed\\]'\xcf\x93\xa5A*\\G\x9c_"
p134
ssS'numpy__import_tools'
p135
(dp136
g6
(dp137
g8
S'numpy__import_tools.html'
p138
sg10
S'numpy._import_tools'
p139
sg11
g12
(g13
g14
NtRp140
(dp141
g17
I1
sg18
I0
sg19
I224
sg20
I0
sg21
I0
sg22
I203
sg23
I0
sbssg24
S'\xe7\xcb\xd4U\xd4\x1f(s\xb1\x1a\x7f\x19\xe5!\xff\xbf'
p142
ssS'MySQLdb_times'
p143
(dp144
g6
(dp145
g8
S'MySQLdb_times.html'
p146
sg10
S'MySQLdb.times'
p147
sg11
g12
(g13
g14
NtRp148
(dp149
g17
I1
sg18
I0
sg19
I87
sg20
I0
sg21
I0
sg22
I64
sg23
I0
sbssg24
S'\x9b\xb7U\xef\xd6\xf8s\xc6\xa4_p\xac7e\xb7\xc7'
p150
ssS'numpy_fft_info'
p151
(dp152
g6
(dp153
g8
S'numpy_fft_info.html'
p154
sg10
S'numpy.fft.info'
p155
sg11
g12
(g13
g14
NtRp156
(dp157
g17
I1
sg18
I0
sg19
I2
sg20
I0
sg21
I0
sg22
I0
sg23
I0
sbssg24
S't\xdbU~X-=\xe7\x07\xe6:f\xa0\xfe/\xe7'
p158
ssS'numpy_polynomial_laguerre'
p159
(dp160
g6
(dp161
g8
S'numpy_polynomial_laguerre.html'
p162
sg10
S'numpy.polynomial.laguerre'
p163
sg11
g12
(g13
g14
NtRp164
(dp165
g17
I1
sg18
I0
sg19
I379
sg20
I0
sg21
I0
sg22
I341
sg23
I0
sbssg24
S'<n\x15\xc6\x1c\x98\xe5\x9f\xf0\xebE\xab\x92\xe8w]'
p166
ssS'twitter_stream'
p167
(dp168
g6
(dp169
g8
S'twitter_stream.html'
p170
sg10
S'twitter.stream'
p171
sg11
g12
(g13
g14
NtRp172
(dp173
g17
I1
sg18
I0
sg19
I166
sg20
I0
sg21
I0
sg22
I127
sg23
I0
sbssg24
S's\xc9\x82\x99\xf8\x81\xf6\xf6rq\xa9\x81F\xa9\xbb\x90'
p174
ssS'TwitterProjectTestEntities'
p175
(dp176
g6
(dp177
S'html_filename'
p178
S'TwitterProjectTestEntities.html'
p179
sS'name'
p180
S'TwitterProjectTestEntities'
p181
sS'nums'
p182
g12
(g13
g14
NtRp183
(dp184
g17
I1
sg18
I0
sg19
I29
sg20
I0
sg21
I0
sg22
I0
sg23
I0
sbssg24
S'\xc9\xe8X\xeaf\xca\xdf)\xc5\xf4\xbc\x04*Sd\xfe'
p185
ssS'numpy_lib_twodim_base'
p186
(dp187
g6
(dp188
g8
S'numpy_lib_twodim_base.html'
p189
sg10
S'numpy.lib.twodim_base'
p190
sg11
g12
(g13
g14
NtRp191
(dp192
g17
I1
sg18
I0
sg19
I116
sg20
I0
sg21
I0
sg22
I97
sg23
I0
sbssg24
S'\xa5\xbc\x86\xb1\x86\x00\xb2\xc5>7/A\x90\x97E\xf4'
p193
ssS'numpy_core_numeric'
p194
(dp195
g6
(dp196
g8
S'numpy_core_numeric.html'
p197
sg10
S'numpy.core.numeric'
p198
sg11
g12
(g13
g14
NtRp199
(dp200
g17
I1
sg18
I0
sg19
I523
sg20
I0
sg21
I0
sg22
I342
sg23
I0
sbssg24
S'\xe4\xb6\xfaG\xce\xa8\\\x15\xb0_\xce\x84\xa50\xa9P'
p201
ssS'numpy_linalg'
p202
(dp203
g6
(dp204
g8
S'numpy_linalg.html'
p205
sg10
S'numpy.linalg'
p206
sg11
g12
(g13
g14
NtRp207
(dp208
g17
I1
sg18
I0
sg19
I6
sg20
I0
sg21
I0
sg22
I0
sg23
I0
sbssg24
S'\xd9\r{X\x17\x0c%f\xb2\xee\xf9`\x19\xe2-O'
p209
ssS'numpy_core_fromnumeric'
p210
(dp211
g6
(dp212
g8
S'numpy_core_fromnumeric.html'
p213
sg10
S'numpy.core.fromnumeric'
p214
sg11
g12
(g13
g14
NtRp215
(dp216
g17
I1
sg18
I0
sg19
I310
sg20
I0
sg21
I0
sg22
I252
sg23
I0
sbssg24
S'\xd6\xdc3\xc6H\x06\x85\xb4\xef\x1f\x8fL\xfc\xb7\xef\xe7'
p217
ssS'numpy_lib_scimath'
p218
(dp219
g6
(dp220
g8
S'numpy_lib_scimath.html'
p221
sg10
S'numpy.lib.scimath'
p222
sg11
g12
(g13
g14
NtRp223
(dp224
g17
I1
sg18
I0
sg19
I55
sg20
I0
sg21
I0
sg22
I35
sg23
I0
sbssg24
S'~\xe4;\xd08/\xd07\xa4\xde6}\xfe\xf2\xed\x0e'
p225
ssS'numpy_lib_index_tricks'
p226
(dp227
g6
(dp228
g8
S'numpy_lib_index_tricks.html'
p229
sg10
S'numpy.lib.index_tricks'
p230
sg11
g12
(g13
g14
NtRp231
(dp232
g17
I1
sg18
I0
sg19
I250
sg20
I0
sg21
I0
sg22
I185
sg23
I0
sbssg24
S'\n2\x7fe\xe13\t\x05u\x86\xca\x18\xea\x12\xa4\\'
p233
ssS'httplib'
p234
(dp235
g6
(dp236
g8
S'httplib.html'
p237
sg10
g234
sg11
g12
(g13
g14
NtRp238
(dp239
g17
I1
sg18
I0
sg19
I711
sg20
I0
sg21
I0
sg22
I711
sg23
I0
sbssg24
S'\xd4\xe0K4\x9e\xc9\xa3\x18\x11\xe6\xc4\xe6\x9c@\t\x87'
p240
ssS'bisect'
p241
(dp242
g6
(dp243
g8
S'bisect.html'
p244
sg10
g241
sg11
g12
(g13
g14
NtRp245
(dp246
g17
I1
sg18
I0
sg19
I46
sg20
I0
sg21
I0
sg22
I46
sg23
I0
sbssg24
S'\x96\x9d\xfd\x1d+\x03NH\x19\xcdj\xfbn\xf0vh'
p247
ssS'numpy_core__methods'
p248
(dp249
g6
(dp250
g8
S'numpy_core__methods.html'
p251
sg10
S'numpy.core._methods'
p252
sg11
g12
(g13
g14
NtRp253
(dp254
g17
I1
sg18
I0
sg19
I72
sg20
I0
sg21
I0
sg22
I56
sg23
I0
sbssg24
S'\xc6w\xe0\x89\xf3+\xffA\xef\xe4,\x97\xe3ND\xd2'
p255
ssS'decimal'
p256
(dp257
g6
(dp258
g8
S'decimal.html'
p259
sg10
g256
sg11
g12
(g13
g14
NtRp260
(dp261
g17
I1
sg18
I0
sg19
I2485
sg20
I0
sg21
I0
sg22
I2485
sg23
I0
sbssg24
S'\xa5\x12\\=U\xe3\xe5u\x0fg\x8d\xa0\x99\x80#8'
p262
ssS'numpy_core_function_base'
p263
(dp264
g6
(dp265
g8
S'numpy_core_function_base.html'
p266
sg10
S'numpy.core.function_base'
p267
sg11
g12
(g13
g14
NtRp268
(dp269
g17
I1
sg18
I0
sg19
I24
sg20
I0
sg21
I0
sg22
I18
sg23
I0
sbssg24
S')\x99\x13b\x05\x8a)_\x9c\x8c\x030P\x11\x9a\x92'
p270
ssS'numpy_core_numerictypes'
p271
(dp272
g6
(dp273
g8
S'numpy_core_numerictypes.html'
p274
sg10
S'numpy.core.numerictypes'
p275
sg11
g12
(g13
g14
NtRp276
(dp277
g17
I1
sg18
I0
sg19
I381
sg20
I0
sg21
I0
sg22
I122
sg23
I0
sbssg24
S'\xb4;\x19.g\xb5|v\\\xa6R\x0b\xa7\xe64\xa7'
p278
ssS'shlex'
p279
(dp280
g6
(dp281
g8
S'shlex.html'
p282
sg10
g279
sg11
g12
(g13
g14
NtRp283
(dp284
g17
I1
sg18
I0
sg19
I229
sg20
I0
sg21
I0
sg22
I229
sg23
I0
sbssg24
S']8kh\x04C\xb8zw\xb3\xa6#\xa1\x85\x1da'
p285
ssS'MySQLdb_cursors'
p286
(dp287
g6
(dp288
g8
S'MySQLdb_cursors.html'
p289
sg10
S'MySQLdb.cursors'
p290
sg11
g12
(g13
g14
NtRp291
(dp292
g17
I1
sg18
I0
sg19
I276
sg20
I0
sg21
I0
sg22
I194
sg23
I0
sbssg24
S'\x93\xd7s|2\xf7\x93\x8e+|j-\xcf/%\xc9'
p293
ssS'json_scanner'
p294
(dp295
g6
(dp296
g8
S'json_scanner.html'
p297
sg10
S'json.scanner'
p298
sg11
g12
(g13
g14
NtRp299
(dp300
g17
I1
sg18
I0
sg19
I52
sg20
I0
sg21
I0
sg22
I52
sg23
I0
sbssg24
S'$\xcb\xac\xc2\x18\x18\xa3\x18a\xf17\x99\xb4\xc6_e'
p301
ssS'redis_utils'
p302
(dp303
g6
(dp304
g8
S'redis_utils.html'
p305
sg10
S'redis.utils'
p306
sg11
g12
(g13
g14
NtRp307
(dp308
g17
I1
sg18
I0
sg19
I13
sg20
I0
sg21
I0
sg22
I6
sg23
I0
sbssg24
S'\x91\xd8\xdfL\xa2\x01B\x07\x90\xa2\xb4\xb4+\xecQ\x85'
p309
ssS'twitter'
p310
(dp311
g6
(dp312
g8
S'twitter.html'
p313
sg10
g310
sg11
g12
(g13
g14
NtRp314
(dp315
g17
I1
sg18
I0
sg19
I17
sg20
I0
sg21
I0
sg22
I0
sg23
I0
sbssg24
S'\x0cHd\xa8_X\x9d\xb2\xc0.n\x1a\xcb\x8ed\xc8'
p316
ssS'redis_exceptions'
p317
(dp318
g6
(dp319
g8
S'redis_exceptions.html'
p320
sg10
S'redis.exceptions'
p321
sg11
g12
(g13
g14
NtRp322
(dp323
g17
I1
sg18
I0
sg19
I31
sg20
I0
sg21
I0
sg22
I5
sg23
I0
sbssg24
S'\xaf\xec\x1dc0D\xb2i\xcc\x01{S<\xc8a\xc3'
p324
ssS'numpy_polynomial_polynomial'
p325
(dp326
g6
(dp327
g8
S'numpy_polynomial_polynomial.html'
p328
sg10
S'numpy.polynomial.polynomial'
p329
sg11
g12
(g13
g14
NtRp330
(dp331
g17
I1
sg18
I0
sg19
I302
sg20
I0
sg21
I0
sg22
I268
sg23
I0
sbssg24
S'F\xe6\x83\xabo\xb5{\n\x08\x11\x9de5h\xd1\xd4'
p332
ssS'MySQLdb'
p333
(dp334
g6
(dp335
g8
S'MySQLdb.html'
p336
sg10
g333
sg11
g12
(g13
g14
NtRp337
(dp338
g17
I1
sg18
I0
sg19
I43
sg20
I0
sg21
I0
sg22
I11
sg23
I0
sbssg24
S'\xf6\xa2p#Rs\r8\xf0\x8f\x9a!\x8a\xbf9\x82'
p339
ssS'HTMLParser'
p340
(dp341
g6
(dp342
g8
S'HTMLParser.html'
p343
sg10
g340
sg11
g12
(g13
g14
NtRp344
(dp345
g17
I1
sg18
I0
sg19
I306
sg20
I0
sg21
I0
sg22
I306
sg23
I0
sbssg24
S'\xca\x97C\x0f\xcc\xda\xd9\x1d\x1e\xb9bV$"\xea_'
p346
ssS'numpy_core_shape_base'
p347
(dp348
g6
(dp349
g8
S'numpy_core_shape_base.html'
p350
sg10
S'numpy.core.shape_base'
p351
sg11
g12
(g13
g14
NtRp352
(dp353
g17
I1
sg18
I0
sg19
I50
sg20
I0
sg21
I0
sg22
I41
sg23
I0
sbssg24
S'\xdd\x16n\x83\x83&\xdb\x81\x96\xa0\xab|S\xeb\x7f\x83'
p354
ssS'numpy_lib_financial'
p355
(dp356
g6
(dp357
g8
S'numpy_lib_financial.html'
p358
sg10
S'numpy.lib.financial'
p359
sg11
g12
(g13
g14
NtRp360
(dp361
g17
I1
sg18
I0
sg19
I112
sg20
I0
sg21
I0
sg22
I94
sg23
I0
sbssg24
S'\xd4a\x9d\xf73;q\r\xa0o{`\xe9F\xe4\x80'
p362
ssS'ctypes__endian'
p363
(dp364
g6
(dp365
g8
S'ctypes__endian.html'
p366
sg10
S'ctypes._endian'
p367
sg11
g12
(g13
g14
NtRp368
(dp369
g17
I1
sg18
I0
sg19
I35
sg20
I0
sg21
I0
sg22
I35
sg23
I0
sbssg24
S'\xccX%g\xba\x03\x9e\xc7#;\xf6A\x9eu\xbb\xda'
p370
ssS'numpy_ma_core'
p371
(dp372
g6
(dp373
g8
S'numpy_ma_core.html'
p374
sg10
S'numpy.ma.core'
p375
sg11
g12
(g13
g14
NtRp376
(dp377
g17
I1
sg18
I0
sg19
I2324
sg20
I0
sg21
I0
sg22
I1793
sg23
I0
sbssg24
S'\xe4>\r\x16^\xf0{$\xbeJ\x9d\r\xf8\xbeQ7'
p378
ssS'numpy_compat__inspect'
p379
(dp380
g6
(dp381
g8
S'numpy_compat__inspect.html'
p382
sg10
S'numpy.compat._inspect'
p383
sg11
g12
(g13
g14
NtRp384
(dp385
g17
I1
sg18
I0
sg19
I106
sg20
I0
sg21
I0
sg22
I51
sg23
I0
sbssg24
S'$M\xe5jQ\xce\xf5\xf2\xcb\xc6\n\x8f\x8c\xea\x9b\x95'
p386
ssS'numpy_lib__datasource'
p387
(dp388
g6
(dp389
g8
S'numpy_lib__datasource.html'
p390
sg10
S'numpy.lib._datasource'
p391
sg11
g12
(g13
g14
NtRp392
(dp393
g17
I1
sg18
I0
sg19
I178
sg20
I0
sg21
I0
sg22
I140
sg23
I0
sbssg24
S'\xe19m\xe9\xb3\xae\xcc\xc7\xb2\xe4\x9bL,\x9e\x8d\xdd'
p394
ssS'MySQLdb_converters'
p395
(dp396
g6
(dp397
g8
S'MySQLdb_converters.html'
p398
sg10
S'MySQLdb.converters'
p399
sg11
g12
(g13
g14
NtRp400
(dp401
g17
I1
sg18
I0
sg19
I58
sg20
I0
sg21
I0
sg22
I30
sg23
I0
sbssg24
S'\xf8[\x15\xc8\xff\x03\x88\x7f\xd3{\xae\x14\xe7\xc5\xbc\x95'
p402
ssS'numpy_matrixlib'
p403
(dp404
g6
(dp405
g8
S'numpy_matrixlib.html'
p406
sg10
S'numpy.matrixlib'
p407
sg11
g12
(g13
g14
NtRp408
(dp409
g17
I1
sg18
I0
sg19
I6
sg20
I0
sg21
I0
sg22
I0
sg23
I0
sbssg24
S'\xbd\t\xbc\x04\x13\xe5\x04\xd8k\x0b\xcb\x16\x8e\xfd\xf6\x97'
p410
ssS'numpy_polynomial_chebyshev'
p411
(dp412
g6
(dp413
g8
S'numpy_polynomial_chebyshev.html'
p414
sg10
S'numpy.polynomial.chebyshev'
p415
sg11
g12
(g13
g14
NtRp416
(dp417
g17
I1
sg18
I0
sg19
I432
sg20
I0
sg21
I0
sg22
I386
sg23
I0
sbssg24
S'\xf39\xf0\x9d\xe9\x97\x0b\xbc\xd9@\xdf\x97\xe5,?p'
p418
ssS'DaoMocks'
p419
(dp420
g6
(dp421
g8
S'DaoMocks.html'
p422
sg10
g419
sg11
g12
(g13
g14
NtRp423
(dp424
g17
I1
sg18
I0
sg19
I55
sg20
I0
sg21
I0
sg22
I6
sg23
I0
sbssg24
S'\xfck\x8a\xc0\x98o\xab\xea\x95\\\xac\xe8\x06[<\xcc'
p425
ssS'numpy_core_arrayprint'
p426
(dp427
g6
(dp428
g8
S'numpy_core_arrayprint.html'
p429
sg10
S'numpy.core.arrayprint'
p430
sg11
g12
(g13
g14
NtRp431
(dp432
g17
I1
sg18
I0
sg19
I354
sg20
I0
sg21
I0
sg22
I300
sg23
I0
sbssg24
S'\xc3:\xb9\xd2\xcb\x81\xde\xc6\xaf\xe1\xdb\xeb\x90\x8e\xda\xd5'
p433
ssS'twitter_oauth2'
p434
(dp435
g6
(dp436
g8
S'twitter_oauth2.html'
p437
sg10
S'twitter.oauth2'
p438
sg11
g12
(g13
g14
NtRp439
(dp440
g17
I1
sg18
I0
sg19
I29
sg20
I0
sg21
I0
sg22
I16
sg23
I0
sbssg24
S'\xb0B\xa4\x028\xe8\xe0~\x0c\x05\xb9\xd9\x84\xb7)\xa0'
p441
ssS'CouchDBDAOs'
p442
(dp443
g6
(dp444
g8
S'CouchDBDAOs.html'
p445
sg10
g442
sg11
g12
(g13
g14
NtRp446
(dp447
g17
I1
sg18
I0
sg19
I16
sg20
I0
sg21
I0
sg22
I11
sg23
I0
sbssg24
S'\xa5\xac\x07\x18>C\x0b\xb2\xa7d\xe7a\xbe\xf0\xed&'
p448
ssS'cgi'
p449
(dp450
g6
(dp451
g8
S'cgi.html'
p452
sg10
g449
sg11
g12
(g13
g14
NtRp453
(dp454
g17
I1
sg18
I0
sg19
I584
sg20
I0
sg21
I0
sg22
I584
sg23
I0
sbssg24
S"\xf6.{q\xc4;\xf2\xe1M':\x0e\x1c\n\xbb\xc1"
p455
ssS'TwitterServiceClasses'
p456
(dp457
g6
(dp458
g8
S'TwitterServiceClasses.html'
p459
sg10
g456
sg11
g12
(g13
g14
NtRp460
(dp461
g17
I1
sg18
I0
sg19
I202
sg20
I0
sg21
I0
sg22
I158
sg23
I0
sbssg24
S't`\xe9`\xefR\xc4k\xb9d\x9b\xcdq\x91m\xa6'
p462
ssS'TwitterLogin'
p463
(dp464
g6
(dp465
g8
S'TwitterLogin.html'
p466
sg10
g463
sg11
g12
(g13
g14
NtRp467
(dp468
g17
I1
sg18
I0
sg19
I12
sg20
I0
sg21
I0
sg22
I7
sg23
I0
sbssg24
S'\x86L\xbee\xeeC\xc4\x00\xae\xc7\xa1^p\xa5\x97C'
p469
ssS'numpy_matrixlib_defmatrix'
p470
(dp471
g6
(dp472
g8
S'numpy_matrixlib_defmatrix.html'
p473
sg10
S'numpy.matrixlib.defmatrix'
p474
sg11
g12
(g13
g14
NtRp475
(dp476
g17
I1
sg18
I0
sg19
I286
sg20
I0
sg21
I0
sg22
I223
sg23
I0
sbssg24
S'I\x01o_,e\\}\xca0\xf0\xd5)\x95\xb0k'
p477
ssS'json'
p478
(dp479
g6
(dp480
g8
S'json.html'
p481
sg10
g478
sg11
g12
(g13
g14
NtRp482
(dp483
g17
I1
sg18
I0
sg19
I39
sg20
I0
sg21
I0
sg22
I39
sg23
I0
sbssg24
S'\x1e\xe4\xfdW\xb0\x014\xb0\xc7U\xc8\x1d\x10)\x9d\xf1'
p484
ssS'numpy_core_getlimits'
p485
(dp486
g6
(dp487
g8
S'numpy_core_getlimits.html'
p488
sg10
S'numpy.core.getlimits'
p489
sg11
g12
(g13
g14
NtRp490
(dp491
g17
I1
sg18
I0
sg19
I132
sg20
I0
sg21
I0
sg22
I94
sg23
I0
sbssg24
S'f0\xee\xd8|[\xeebN\xbf\x07&\xfd\xefQ\xbb'
p492
ssS'TwitterMocks'
p493
(dp494
g6
(dp495
g8
S'TwitterMocks.html'
p496
sg10
g493
sg11
g12
(g13
g14
NtRp497
(dp498
g17
I1
sg18
I0
sg19
I17
sg20
I0
sg21
I0
sg22
I1
sg23
I0
sbssg24
S'\x12-\xe5\xf5y\xbb7P\x1e\x13^\xee\xdcXg='
p499
ssS'ctypes'
p500
(dp501
g6
(dp502
g8
S'ctypes.html'
p503
sg10
g500
sg11
g12
(g13
g14
NtRp504
(dp505
g17
I1
sg18
I0
sg19
I341
sg20
I0
sg21
I0
sg22
I341
sg23
I0
sbssg24
S'A\xa2\xf3\xf0\x1cy\x18A3\xf5k\xc3\xc5\xfbv\x99'
p506
ssS'numpy_lib_arrayterator'
p507
(dp508
g6
(dp509
g8
S'numpy_lib_arrayterator.html'
p510
sg10
S'numpy.lib.arrayterator'
p511
sg11
g12
(g13
g14
NtRp512
(dp513
g17
I1
sg18
I0
sg19
I72
sg20
I0
sg21
I0
sg22
I58
sg23
I0
sbssg24
S'\xc5\x15Y\xe7\xf0i\xd6Y}\xe1#\xf8\x9bu\x05X'
p514
ssS'numpy___config__'
p515
(dp516
g6
(dp517
g8
S'numpy___config__.html'
p518
sg10
S'numpy.__config__'
p519
sg11
g12
(g13
g14
NtRp520
(dp521
g17
I1
sg18
I0
sg19
I23
sg20
I0
sg21
I0
sg22
I12
sg23
I0
sbssg24
S';\x9d\x89M\x00%\xa9\x05g%\xad\xc6h\x9c\xe6A'
p522
ssS'twitter_text_extractor'
p523
(dp524
g6
(dp525
g8
S'twitter_text_extractor.html'
p526
sg10
S'twitter_text.extractor'
p527
sg11
g12
(g13
g14
NtRp528
(dp529
g17
I1
sg18
I0
sg19
I113
sg20
I0
sg21
I0
sg22
I57
sg23
I0
sbssg24
S'\x9b\xcd\x0b \xe1y}\xa8\xbf\x12\xe7[\n,-M'
p530
ssS'json_decoder'
p531
(dp532
g6
(dp533
g8
S'json_decoder.html'
p534
sg10
S'json.decoder'
p535
sg11
g12
(g13
g14
NtRp536
(dp537
g17
I1
sg18
I0
sg19
I221
sg20
I0
sg21
I0
sg22
I221
sg23
I0
sbssg24
S'\xf0\xe0\x0e\xdb\x89\xb7\xe6Htdq0\xc9?\xe1&'
p538
ssS'numpy_lib_nanfunctions'
p539
(dp540
g6
(dp541
g8
S'numpy_lib_nanfunctions.html'
p542
sg10
S'numpy.lib.nanfunctions'
p543
sg11
g12
(g13
g14
NtRp544
(dp545
g17
I1
sg18
I0
sg19
I138
sg20
I0
sg21
I0
sg22
I123
sg23
I0
sbssg24
S'\x0f\xee\xc9\x9586\xf3\xb8\x16\x1e\xe4Q\xa1\x16\xdb\xfb'
p546
ssS'MySQLdb_constants_FLAG'
p547
(dp548
g6
(dp549
g8
S'MySQLdb_constants_FLAG.html'
p550
sg10
S'MySQLdb.constants.FLAG'
p551
sg11
g12
(g13
g14
NtRp552
(dp553
g17
I1
sg18
I0
sg19
I16
sg20
I0
sg21
I0
sg22
I0
sg23
I0
sbssg24
S'\xc7\x9b>\xf7\t\x9d\xcf\xb5\x02\xf1\x9b\xd3{\xb0-\xff'
p554
ssS'numpy_fft'
p555
(dp556
g6
(dp557
g8
S'numpy_fft.html'
p558
sg10
S'numpy.fft'
p559
sg11
g12
(g13
g14
NtRp560
(dp561
g17
I1
sg18
I0
sg19
I7
sg20
I0
sg21
I0
sg22
I0
sg23
I0
sbssg24
S'\xfb\xf3+<\xef\t\xf7G\x9f:\xbe(\x1fL\x1f_'
p562
ssS'numpy_lib_npyio'
p563
(dp564
g6
(dp565
g8
S'numpy_lib_npyio.html'
p566
sg10
S'numpy.lib.npyio'
p567
sg11
g12
(g13
g14
NtRp568
(dp569
g17
I1
sg18
I0
sg19
I729
sg20
I0
sg21
I0
sg22
I676
sg23
I0
sbssg24
S';\x12\xa9\xd1\x87Q\x86\x1c\x1cT\x92!\x8c\x14ac'
p570
ssS'numpy_compat_py3k'
p571
(dp572
g6
(dp573
g8
S'numpy_compat_py3k.html'
p574
sg10
S'numpy.compat.py3k'
p575
sg11
g12
(g13
g14
NtRp576
(dp577
g17
I1
sg18
I0
sg19
I57
sg20
I0
sg21
I0
sg22
I38
sg23
I0
sbssg24
S'\xfc\x1a\xc6\x0f\xe3\xfa\x95\xd5ea\x02\xaf\xa7\x10\x17W'
p578
ssS'twitter_oauth_dance'
p579
(dp580
g6
(dp581
g8
S'twitter_oauth_dance.html'
p582
sg10
S'twitter.oauth_dance'
p583
sg11
g12
(g13
g14
NtRp584
(dp585
g17
I1
sg18
I0
sg19
I39
sg20
I0
sg21
I0
sg22
I30
sg23
I0
sbssg24
S'\x17\x12\xbb\xb5\xdb\x94\x85\x86A3\x7f\xed\n|J\xad'
p586
ssS'encodings_hex_codec'
p587
(dp588
g6
(dp589
g8
S'encodings_hex_codec.html'
p590
sg10
S'encodings.hex_codec'
p591
sg11
g12
(g13
g14
NtRp592
(dp593
g17
I1
sg18
I0
sg19
I28
sg20
I0
sg21
I0
sg22
I28
sg23
I0
sbssg24
S'\xa4g4d\xd88\xd4\x16\xeb\xfbb\xac\xbc\xa1h\xc6'
p594
ssS'twitter_text_highlighter'
p595
(dp596
g6
(dp597
g8
S'twitter_text_highlighter.html'
p598
sg10
S'twitter_text.highlighter'
p599
sg11
g12
(g13
g14
NtRp600
(dp601
g17
I1
sg18
I0
sg19
I67
sg20
I0
sg21
I0
sg22
I54
sg23
I0
sbssg24
S'\x16\xa2,Y;\xe8Ydu\xae<\xdb@\x96\x02\xc0'
p602
ssS'twitter_text'
p603
(dp604
g6
(dp605
g8
S'twitter_text.html'
p606
sg10
g603
sg11
g12
(g13
g14
NtRp607
(dp608
g17
I1
sg18
I0
sg19
I25
sg20
I0
sg21
I0
sg22
I12
sg23
I0
sbssg24
S'B\tc\x93L\x879\xe8\xdcJtG!\xe0\xc2\x91'
p609
ssS'MySQLdb_constants_CLIENT'
p610
(dp611
g6
(dp612
g8
S'MySQLdb_constants_CLIENT.html'
p613
sg10
S'MySQLdb.constants.CLIENT'
p614
sg11
g12
(g13
g14
NtRp615
(dp616
g17
I1
sg18
I0
sg19
I18
sg20
I0
sg21
I0
sg22
I0
sg23
I0
sbssg24
S'\xe6\xcc\xce$\xe06i\xc1_\xc4\x90\x1c\xaf\x9f\xe4X'
p617
ssS'numpy_compat'
p618
(dp619
g6
(dp620
g8
S'numpy_compat.html'
p621
sg10
S'numpy.compat'
p622
sg11
g12
(g13
g14
NtRp623
(dp624
g17
I1
sg18
I0
sg19
I8
sg20
I0
sg21
I0
sg22
I0
sg23
I0
sbssg24
S'\x15\x0e\xb5\x81\r\xba,\xe3\xc7\x05Pc\xc1\x0eQ\x0c'
p625
ssS'numpy_lib_arraypad'
p626
(dp627
g6
(dp628
g8
S'numpy_lib_arraypad.html'
p629
sg10
S'numpy.lib.arraypad'
p630
sg11
g12
(g13
g14
NtRp631
(dp632
g17
I1
sg18
I0
sg19
I383
sg20
I0
sg21
I0
sg22
I357
sg23
I0
sbssg24
S'Nh\x94\xe2\x16\xc1\xbafR\x86S\xd2\x1f\x8a\x11N'
p633
ssS'couchdb_client'
p634
(dp635
g6
(dp636
g8
S'couchdb_client.html'
p637
sg10
S'couchdb.client'
p638
sg11
g12
(g13
g14
NtRp639
(dp640
g17
I1
sg18
I0
sg19
I438
sg20
I0
sg21
I0
sg22
I336
sg23
I0
sbssg24
S"\xd7\x95\xea\xa6$\x99\xaa2\xdeR'B\xcb\x0cm\xfe"
p641
ssS'numpy_lib_type_check'
p642
(dp643
g6
(dp644
g8
S'numpy_lib_type_check.html'
p645
sg10
S'numpy.lib.type_check'
p646
sg11
g12
(g13
g14
NtRp647
(dp648
g17
I1
sg18
I0
sg19
I104
sg20
I0
sg21
I0
sg22
I81
sg23
I0
sbssg24
S'\x83\x19E\xab\xef\xa5\x15N\xc3\xecc\x8b\xf5\x89\x8f\xf1'
p649
ssS'TwitterDataProcessors'
p650
(dp651
g6
(dp652
S'html_filename'
p653
S'TwitterDataProcessors.html'
p654
sS'name'
p655
S'TwitterDataProcessors'
p656
sS'nums'
p657
g12
(g13
g14
NtRp658
(dp659
g17
I1
sg18
I0
sg19
I132
sg20
I0
sg21
I0
sg22
I25
sg23
I0
sbssg24
S'\xe4\xcdqmU\xc2\x00\x904\xb8 \x1bp\x82\xac\xf6'
p660
ssS'BeautifulSoup'
p661
(dp662
g6
(dp663
g8
S'BeautifulSoup.html'
p664
sg10
g661
sg11
g12
(g13
g14
NtRp665
(dp666
g17
I1
sg18
I0
sg19
I1047
sg20
I0
sg21
I0
sg22
I646
sg23
I0
sbssg24
S'\xf6zT\xd8\xb2\xf4 \x9d\xddGHk\x94\xd9\xe0 '
p667
ssS'TwitterUtilities'
p668
(dp669
g6
(dp670
g8
S'TwitterUtilities.html'
p671
sg10
g668
sg11
g12
(g13
g14
NtRp672
(dp673
g17
I1
sg18
I0
sg19
I102
sg20
I0
sg21
I0
sg22
I85
sg23
I0
sbssg24
S'6pMd\xf8bI\xfaMKg\xe8#I\xf9\xb0'
p674
ssS'numpy_core_machar'
p675
(dp676
g6
(dp677
g8
S'numpy_core_machar.html'
p678
sg10
S'numpy.core.machar'
p679
sg11
g12
(g13
g14
NtRp680
(dp681
g17
I1
sg18
I0
sg19
I186
sg20
I0
sg21
I0
sg22
I177
sg23
I0
sbssg24
S'\xa29\xf0H\x8f\x1cl\xb7\xbe1IHW\x97\xacY'
p682
ssS'TwitterSQLService'
p683
(dp684
g6
(dp685
g8
S'TwitterSQLService.html'
p686
sg10
g683
sg11
g12
(g13
g14
NtRp687
(dp688
g17
I1
sg18
I0
sg19
I12
sg20
I0
sg21
I0
sg22
I5
sg23
I0
sbssg24
S'\x90\x0cs\\\x9cK\x81\x7f\x8a\x0fZ\xfd\xa6\xd56:'
p689
ssS'numpy_polynomial_hermite_e'
p690
(dp691
g6
(dp692
g8
S'numpy_polynomial_hermite_e.html'
p693
sg10
S'numpy.polynomial.hermite_e'
p694
sg11
g12
(g13
g14
NtRp695
(dp696
g17
I1
sg18
I0
sg19
I379
sg20
I0
sg21
I0
sg22
I341
sg23
I0
sbssg24
S"\xa6\x8e\xe9K\xc9'6\xa8DdQ\x05O\xa3\xa5\x08"
p697
ssS'numpy_add_newdocs'
p698
(dp699
g6
(dp700
g8
S'numpy_add_newdocs.html'
p701
sg10
S'numpy.add_newdocs'
p702
sg11
g12
(g13
g14
NtRp703
(dp704
g17
I1
sg18
I0
sg19
I275
sg20
I0
sg21
I0
sg22
I0
sg23
I0
sbssg24
S'\xb8j\x1b\xa1\xbd\x06\xc6\xa9\xbb\x88\t\x90\xe1\x16-\x0c'
p705
ssS'RedisDAOs'
p706
(dp707
g6
(dp708
g8
S'RedisDAOs.html'
p709
sg10
g706
sg11
g12
(g13
g14
NtRp710
(dp711
g17
I1
sg18
I0
sg19
I8
sg20
I0
sg21
I0
sg22
I4
sg23
I0
sbssg24
S'E\xe114\x03;\x9d\xa7V2\xf7\x0c\xd8\xeete'
p712
ssS'numpy_lib_utils'
p713
(dp714
g6
(dp715
g8
S'numpy_lib_utils.html'
p716
sg10
S'numpy.lib.utils'
p717
sg11
g12
(g13
g14
NtRp718
(dp719
g17
I1
sg18
I0
sg19
I517
sg20
I0
sg21
I0
sg22
I442
sg23
I0
sbssg24
S'\x90#\xc6\xe2\xa3\xe2I\xc0\x0c\xf6\xc7#\x86tl\x07'
p720
ssS'numpy_lib_stride_tricks'
p721
(dp722
g6
(dp723
g8
S'numpy_lib_stride_tricks.html'
p724
sg10
S'numpy.lib.stride_tricks'
p725
sg11
g12
(g13
g14
NtRp726
(dp727
g17
I1
sg18
I0
sg19
I48
sg20
I0
sg21
I0
sg22
I41
sg23
I0
sbssg24
S"e''V\xb1\xe8Z\x8d6~\x18\x8f\x83\xcab\x80"
p728
ssS'numpy_polynomial_legendre'
p729
(dp730
g6
(dp731
g8
S'numpy_polynomial_legendre.html'
p732
sg10
S'numpy.polynomial.legendre'
p733
sg11
g12
(g13
g14
NtRp734
(dp735
g17
I1
sg18
I0
sg19
I386
sg20
I0
sg21
I0
sg22
I348
sg23
I0
sbssg24
S'\xab\x81<=%:\xba\\\x15\xb3V\xdd\xa7tT\xb0'
p736
ssS'numpy_core_memmap'
p737
(dp738
g6
(dp739
g8
S'numpy_core_memmap.html'
p740
sg10
S'numpy.core.memmap'
p741
sg11
g12
(g13
g14
NtRp742
(dp743
g17
I1
sg18
I0
sg19
I83
sg20
I0
sg21
I0
sg22
I67
sg23
I0
sbssg24
S'\x99uY\xc7L\xab\x9f\xc4e\xa5\xd0\xa1\xf7\xbd\xf8T'
p744
ssS'json_encoder'
p745
(dp746
g6
(dp747
g8
S'json_encoder.html'
p748
sg10
S'json.encoder'
p749
sg11
g12
(g13
g14
NtRp750
(dp751
g17
I1
sg18
I0
sg19
I241
sg20
I0
sg21
I0
sg22
I241
sg23
I0
sbssg24
S'\x16\x80\x8da\x9d\xdd\xa0C\x13\xb9\x8e\x1d)\xb7\xdbz'
p752
ssS'twitter_auth'
p753
(dp754
g6
(dp755
g8
S'twitter_auth.html'
p756
sg10
S'twitter.auth'
p757
sg11
g12
(g13
g14
NtRp758
(dp759
g17
I1
sg18
I0
sg19
I26
sg20
I0
sg21
I0
sg22
I10
sg23
I0
sbssg24
S'\x83\xff=R!\xe7\xf6\xc9\x95\x85\xb3\x86.\xf1\xef\xff'
p760
ssS'couchdb_design'
p761
(dp762
g6
(dp763
g8
S'couchdb_design.html'
p764
sg10
S'couchdb.design'
p765
sg11
g12
(g13
g14
NtRp766
(dp767
g17
I1
sg18
I0
sg19
I80
sg20
I0
sg21
I0
sg22
I62
sg23
I0
sbssg24
S'\xc2s\x8b8\x15\xeb\xc0\x83\xf1\xe4\xc26%<\x81N'
p768
ssS'numpy'
p769
(dp770
g6
(dp771
g8
S'numpy.html'
p772
sg10
g769
sg11
g12
(g13
g14
NtRp773
(dp774
g17
I1
sg18
I0
sg19
I56
sg20
I0
sg21
I0
sg22
I10
sg23
I0
sbssg24
S'\t\x00=\x82\x82G\x99J\x98C\x98\n\xe3\xb8\x83\x17'
p775
ssS'MySQLdb_connections'
p776
(dp777
g6
(dp778
g8
S'MySQLdb_connections.html'
p779
sg10
S'MySQLdb.connections'
p780
sg11
g12
(g13
g14
NtRp781
(dp782
g17
I1
sg18
I0
sg19
I149
sg20
I0
sg21
I0
sg22
I51
sg23
I0
sbssg24
S'\x14\x8cD\x7f\x8f\x17*\xd1pW\x8f^\xeb\xbf\x8d\xca'
p783
ssS'numpy_polynomial_hermite'
p784
(dp785
g6
(dp786
g8
S'numpy_polynomial_hermite.html'
p787
sg10
S'numpy.polynomial.hermite'
p788
sg11
g12
(g13
g14
NtRp789
(dp790
g17
I1
sg18
I0
sg19
I382
sg20
I0
sg21
I0
sg22
I344
sg23
I0
sbssg24
S'B\xa8e0\xf2\x07\xcbs\x96\xd2\x1a30\xdc\x823'
p791
ssS'numpy_core_records'
p792
(dp793
g6
(dp794
g8
S'numpy_core_records.html'
p795
sg10
S'numpy.core.records'
p796
sg11
g12
(g13
g14
NtRp797
(dp798
g17
I1
sg18
I0
sg19
I356
sg20
I0
sg21
I0
sg22
I318
sg23
I0
sbssg24
S'\xf9\n\xffj\x82\xc1\xe4Y\xfe\xf7\x05%5C\x10Y'
p799
ssS'MySQLdb_constants'
p800
(dp801
g6
(dp802
g8
S'MySQLdb_constants.html'
p803
sg10
S'MySQLdb.constants'
p804
sg11
g12
(g13
g14
NtRp805
(dp806
g17
I1
sg18
I0
sg19
I1
sg20
I0
sg21
I0
sg22
I0
sg23
I0
sbssg24
S'\x8b\xba`z\x0c\x93?\xb8K`\xc8+2\x9e\x95d'
p807
ssS'numpy_lib_info'
p808
(dp809
g6
(dp810
g8
S'numpy_lib_info.html'
p811
sg10
S'numpy.lib.info'
p812
sg11
g12
(g13
g14
NtRp813
(dp814
g17
I1
sg18
I0
sg19
I3
sg20
I0
sg21
I0
sg22
I0
sg23
I0
sbssg24
S'\x07\x9e\xa6!o8\x00`\xcf1\x0cz\xe8j*;'
p815
ssS'numpy_core__internal'
p816
(dp817
g6
(dp818
g8
S'numpy_core__internal.html'
p819
sg10
S'numpy.core._internal'
p820
sg11
g12
(g13
g14
NtRp821
(dp822
g17
I1
sg18
I0
sg19
I350
sg20
I0
sg21
I0
sg22
I296
sg23
I0
sbssg24
S'\xe17M\xc4\xf2\xb6\x8a\xf6g\x0e\xd0k\x10\xfcu\xbf'
p823
ssS'numpy_lib_polynomial'
p824
(dp825
g6
(dp826
g8
S'numpy_lib_polynomial.html'
p827
sg10
S'numpy.lib.polynomial'
p828
sg11
g12
(g13
g14
NtRp829
(dp830
g17
I1
sg18
I0
sg19
I386
sg20
I0
sg21
I0
sg22
I328
sg23
I0
sbssg24
S"\xdeOM\x80\x85\xd4\xcc\xfb\xd7l'j\xf2!\xc5="
p831
ssS'redis_connection'
p832
(dp833
g6
(dp834
g8
S'redis_connection.html'
p835
sg10
S'redis.connection'
p836
sg11
g12
(g13
g14
NtRp837
(dp838
g17
I1
sg18
I0
sg19
I360
sg20
I0
sg21
I0
sg22
I288
sg23
I0
sbssg24
S'h\xcd?hv\xedq\x9c\xe9\xeb\xa5\x8e\xabI\xf4c'
p839
ssS'numpy_linalg_info'
p840
(dp841
g6
(dp842
g8
S'numpy_linalg_info.html'
p843
sg10
S'numpy.linalg.info'
p844
sg11
g12
(g13
g14
NtRp845
(dp846
g17
I1
sg18
I0
sg19
I2
sg20
I0
sg21
I0
sg22
I0
sg23
I0
sbssg24
S"\xaf\xc5'e\x12\xe3\xb15\xa1\xf0]*we\xdc5"
p847
ssS'numpy_core'
p848
(dp849
g6
(dp850
g8
S'numpy_core.html'
p851
sg10
S'numpy.core'
p852
sg11
g12
(g13
g14
NtRp853
(dp854
g17
I1
sg18
I0
sg19
I56
sg20
I0
sg21
I0
sg22
I6
sg23
I0
sbssg24
S'\xae\xb8\xb1\x8f\xe1Q\x0e\x1f)H\xbf\xedn\r\x8b='
p855
ssS'numpy_lib__iotools'
p856
(dp857
g6
(dp858
g8
S'numpy_lib__iotools.html'
p859
sg10
S'numpy.lib._iotools'
p860
sg11
g12
(g13
g14
NtRp861
(dp862
g17
I1
sg18
I0
sg19
I372
sg20
I0
sg21
I0
sg22
I320
sg23
I0
sbssg24
S'\xe5j\x8fJ\xfe\xbb*\xa8\x8c\xc9g\x16?\x96\xb2\xea'
p863
ssS'twitter_api'
p864
(dp865
g6
(dp866
g8
S'twitter_api.html'
p867
sg10
S'twitter.api'
p868
sg11
g12
(g13
g14
NtRp869
(dp870
g17
I1
sg18
I0
sg19
I182
sg20
I0
sg21
I0
sg22
I140
sg23
I0
sbssg24
S'\x9e\xe7\x9c.\xa8\xd6\xdd!\xba~\xdc3\xd8\xa8 I'
p871
ssS'numpy_polynomial'
p872
(dp873
g6
(dp874
g8
S'numpy_polynomial.html'
p875
sg10
S'numpy.polynomial'
p876
sg11
g12
(g13
g14
NtRp877
(dp878
g17
I1
sg18
I0
sg19
I11
sg20
I0
sg21
I0
sg22
I0
sg23
I0
sbssg24
S'OgG\x1b\x12\xc2+gP"1\xf7\xcdQ\xb8\xa8'
p879
ssS'numpy_random_info'
p880
(dp881
g6
(dp882
g8
S'numpy_random_info.html'
p883
sg10
S'numpy.random.info'
p884
sg11
g12
(g13
g14
NtRp885
(dp886
g17
I1
sg18
I0
sg19
I3
sg20
I0
sg21
I0
sg22
I0
sg23
I0
sbssg24
S':$\xabS\x86\xec\x80\x16\xcf\xe2]\x99\x84CP\x96'
p887
ssS'numpy_polynomial_polytemplate'
p888
(dp889
g6
(dp890
g8
S'numpy_polynomial_polytemplate.html'
p891
sg10
S'numpy.polynomial.polytemplate'
p892
sg11
g12
(g13
g14
NtRp893
(dp894
g17
I1
sg18
I0
sg19
I4
sg20
I0
sg21
I0
sg22
I0
sg23
I0
sbssg24
S'\xfe#\xfb\xef\x98\x14,W\xf7^\x14\xb0\x8e\xc5\xaat'
p895
ssS'markupbase'
p896
(dp897
g6
(dp898
g8
S'markupbase.html'
p899
sg10
g896
sg11
g12
(g13
g14
NtRp900
(dp901
g17
I1
sg18
I0
sg19
I276
sg20
I0
sg21
I0
sg22
I276
sg23
I0
sbssg24
S'\xed\x06Y\xc0P\x7f+\x8dM`\x7f\x99\xc2\xedE\xd7'
p902
ssS'twitter_text_regex'
p903
(dp904
g6
(dp905
g8
S'twitter_text_regex.html'
p906
sg10
S'twitter_text.regex'
p907
sg11
g12
(g13
g14
NtRp908
(dp909
g17
I1
sg18
I0
sg19
I88
sg20
I0
sg21
I0
sg22
I0
sg23
I0
sbssg24
S'\x08P,\xee/1z\x1b\x86\x9c\x08!\xc9,v\xcd'
p910
ssS'contextlib'
p911
(dp912
g6
(dp913
g8
S'contextlib.html'
p914
sg10
g911
sg11
g12
(g13
g14
NtRp915
(dp916
g17
I1
sg18
I0
sg19
I63
sg20
I0
sg21
I0
sg22
I63
sg23
I0
sbssg24
S'\xed\xf2\x87\xf1\x98\xeba\xd2\xd0=\xd5\x17\xce\x1a\xfb\xd2'
p917
ssS'_mysql_exceptions'
p918
(dp919
g6
(dp920
g8
S'_mysql_exceptions.html'
p921
sg10
g918
sg11
g12
(g13
g14
NtRp922
(dp923
g17
I1
sg18
I0
sg19
I15
sg20
I0
sg21
I0
sg22
I2
sg23
I0
sbssg24
S'\xec\xe1\xcf\xe8\xd6\xe3\x01# \xf9Sjv5?\x12'
p924
ssS'mimetools'
p925
(dp926
g6
(dp927
g8
S'mimetools.html'
p928
sg10
g925
sg11
g12
(g13
g14
NtRp929
(dp930
g17
I1
sg18
I0
sg19
I162
sg20
I0
sg21
I0
sg22
I162
sg23
I0
sbssg24
S'Q\xc4\x87;\xab\x076\x8f\xa2\x14\x8a\x94\xa8{I}'
p931
ssS'numpy_lib_function_base'
p932
(dp933
g6
(dp934
g8
S'numpy_lib_function_base.html'
p935
sg10
S'numpy.lib.function_base'
p936
sg11
g12
(g13
g14
NtRp937
(dp938
g17
I1
sg18
I0
sg19
I889
sg20
I0
sg21
I0
sg22
I806
sg23
I0
sbssg24
S'\x89f\xccM\xd01<\xb5\x08\xce\xe2\xffi\xfe\xf0\xc3'
p939
ssS'redis_client'
p940
(dp941
g6
(dp942
g8
S'redis_client.html'
p943
sg10
S'redis.client'
p944
sg11
g12
(g13
g14
NtRp945
(dp946
g17
I1
sg18
I0
sg19
I1037
sg20
I0
sg21
I0
sg22
I786
sg23
I0
sbssg24
S'\x0f\xab\x16\xfa\xd6\xe1\xae\x1bM\x1c\xcf\xac\r\x06:\xc4'
p947
ssS'twitter_twitter_globals'
p948
(dp949
g6
(dp950
g8
S'twitter_twitter_globals.html'
p951
sg10
S'twitter.twitter_globals'
p952
sg11
g12
(g13
g14
NtRp953
(dp954
g17
I1
sg18
I0
sg19
I1
sg20
I0
sg21
I0
sg22
I0
sg23
I0
sbssg24
S"\x93m  }'@\x0b-\x83Y\x01\\]V\x1e"
p955
ssS'redis__compat'
p956
(dp957
g6
(dp958
g8
S'redis__compat.html'
p959
sg10
S'redis._compat'
p960
sg11
g12
(g13
g14
NtRp961
(dp962
g17
I1
sg18
I0
sg19
I62
sg20
I0
sg21
I0
sg22
I34
sg23
I0
sbssg24
S'\x126j\xf7\x02\xb1c\xe5\xfca\x06}u\xe2\xcd\xe1'
p963
ssS'numpy_lib_ufunclike'
p964
(dp965
g6
(dp966
g8
S'numpy_lib_ufunclike.html'
p967
sg10
S'numpy.lib.ufunclike'
p968
sg11
g12
(g13
g14
NtRp969
(dp970
g17
I1
sg18
I0
sg19
I23
sg20
I0
sg21
I0
sg22
I17
sg23
I0
sbssg24
S'\xb5q\xee\x8d\xbf\x96\x08\xf2Q1\xad\xe6$r\xfb\x13'
p971
ssS'numpy_core_info'
p972
(dp973
g6
(dp974
g8
S'numpy_core_info.html'
p975
sg10
S'numpy.core.info'
p976
sg11
g12
(g13
g14
NtRp977
(dp978
g17
I1
sg18
I0
sg19
I3
sg20
I0
sg21
I0
sg22
I0
sg23
I0
sbssg24
S'\x85\xb6\xda\x18M\xdd\xfd\x8a\xaeG7-.\xa5\xab0'
p979
ssS'Loggers'
p980
(dp981
g6
(dp982
S'html_filename'
p983
S'Loggers.html'
p984
sS'name'
p985
S'Loggers'
p986
sS'nums'
p987
g12
(g13
g14
NtRp988
(dp989
g17
I1
sg18
I0
sg19
I33
sg20
I0
sg21
I0
sg22
I3
sg23
I0
sbssg24
S'\xe2;u\xf0\xb7\x08\xfe\xf3OQ6G\x0b}S\xe6'
p990
ssS'SaveToMySQL'
p991
(dp992
g6
(dp993
S'html_filename'
p994
S'SaveToMySQL.html'
p995
sS'name'
p996
S'SaveToMySQL'
p997
sS'nums'
p998
g12
(g13
g14
NtRp999
(dp1000
g17
I1
sg18
I0
sg19
I119
sg20
I0
sg21
I0
sg22
I28
sg23
I0
sbssg24
S'\xa3\x04\xb8B\xd8\x90\x7f4V\xa0\x07\x18\xd8\x19\x01%'
p1001
ssS'couchdb'
p1002
(dp1003
g6
(dp1004
g8
S'couchdb.html'
p1005
sg10
g1002
sg11
g12
(g13
g14
NtRp1006
(dp1007
g17
I1
sg18
I0
sg19
I6
sg20
I0
sg21
I0
sg22
I2
sg23
I0
sbssg24
S'\x08\x87\x9dv\xaaU\xe4\x19$X\x8d\xce\xd0\x1a\x17\xf2'
p1008
ssS'numpy_random'
p1009
(dp1010
g6
(dp1011
g8
S'numpy_random.html'
p1012
sg10
S'numpy.random'
p1013
sg11
g12
(g13
g14
NtRp1014
(dp1015
g17
I1
sg18
I0
sg19
I13
sg20
I0
sg21
I0
sg22
I1
sg23
I0
sbssg24
S'|\x9d\xe3\xdd\x88\x1f>\xa0\xb1\xbd\x82f-\x81\xd4\x88'
p1016
ssS'MySQLdb_release'
p1017
(dp1018
g6
(dp1019
g8
S'MySQLdb_release.html'
p1020
sg10
S'MySQLdb.release'
p1021
sg11
g12
(g13
g14
NtRp1022
(dp1023
g17
I1
sg18
I0
sg19
I3
sg20
I0
sg21
I0
sg22
I0
sg23
I0
sbssg24
S'\\\\\x8a\x02\x8fIx\x8c\x0b%[\x81\xf7\xe1\xc7\xc7'
p1024
ssS'numpy_linalg_linalg'
p1025
(dp1026
g6
(dp1027
g8
S'numpy_linalg_linalg.html'
p1028
sg10
S'numpy.linalg.linalg'
p1029
sg11
g12
(g13
g14
NtRp1030
(dp1031
g17
I1
sg18
I0
sg19
I530
sg20
I0
sg21
I0
sg22
I463
sg23
I0
sbssg24
S'\xb7\xbep\xa8\xc1\xd2\xe0\x0f\x16Pa\xb7W\x85\xbe\x1b'
p1032
ssS'numpy_lib_shape_base'
p1033
(dp1034
g6
(dp1035
g8
S'numpy_lib_shape_base.html'
p1036
sg10
S'numpy.lib.shape_base'
p1037
sg11
g12
(g13
g14
NtRp1038
(dp1039
g17
I1
sg18
I0
sg19
I200
sg20
I0
sg21
I0
sg22
I178
sg23
I0
sbssg24
S'{\xddK\xb5\t\x05\x12\xf5Lr\x9bN\x95}\x86\xc5'
p1040
ssS'TweetSaverService'
p1041
(dp1042
g6
(dp1043
S'html_filename'
p1044
S'TweetSaverService.html'
p1045
sS'name'
p1046
S'TweetSaverService'
p1047
sS'nums'
p1048
g12
(g13
g14
NtRp1049
(dp1050
g17
I1
sg18
I0
sg19
I87
sg20
I0
sg21
I0
sg22
I28
sg23
I0
sbssg24
S"7\xfc\xe5u\x13'[\x8b\xc2\x98p\xd0\xab\xf2\xb0\xb0"
p1051
ssS'mimetypes'
p1052
(dp1053
g6
(dp1054
g8
S'mimetypes.html'
p1055
sg10
g1052
sg11
g12
(g13
g14
NtRp1056
(dp1057
g17
I1
sg18
I0
sg19
I197
sg20
I0
sg21
I0
sg22
I197
sg23
I0
sbssg24
S'\xdc_\xd9\x9f\xd5\x88\x15q\x12e;\xf2\xadc\x9eA'
p1058
ssS'twitter_text_unicode'
p1059
(dp1060
g6
(dp1061
g8
S'twitter_text_unicode.html'
p1062
sg10
S'twitter_text.unicode'
p1063
sg11
g12
(g13
g14
NtRp1064
(dp1065
g17
I1
sg18
I0
sg19
I31
sg20
I0
sg21
I0
sg22
I18
sg23
I0
sbssg24
S'\x95{\x7f[ {8L;\xe3\xbf\xf9\x86#\x1c\x11'
p1066
ssS'rfc822'
p1067
(dp1068
g6
(dp1069
g8
S'rfc822.html'
p1070
sg10
g1067
sg11
g12
(g13
g14
NtRp1071
(dp1072
g17
I1
sg18
I0
sg19
I574
sg20
I0
sg21
I0
sg22
I574
sg23
I0
sbssg24
S'\x1d[\xbe4\x12\xbf\x00\x12#=\xcd}\xebe\xa7\xe1'
p1073
ssS'twitter_oauth'
p1074
(dp1075
g6
(dp1076
g8
S'twitter_oauth.html'
p1077
sg10
S'twitter.oauth'
p1078
sg11
g12
(g13
g14
NtRp1079
(dp1080
g17
I1
sg18
I0
sg19
I58
sg20
I0
sg21
I0
sg22
I38
sg23
I0
sbssg24
S"\x9d\xd1\x03\xa1\xcf:\xfe\xf4\xe4'\n\x1a\xc1\xc6\xb5b"
p1081
ssS'TwitterSqlDaos'
p1082
(dp1083
g6
(dp1084
g8
S'TwitterSqlDaos.html'
p1085
sg10
g1082
sg11
g12
(g13
g14
NtRp1086
(dp1087
g17
I1
sg18
I0
sg19
I12
sg20
I0
sg21
I0
sg22
I2
sg23
I0
sbssg24
S'\x12\xa8K\x8e[B\xfd\xa6\x023O\x8c\xf8{\xcc\xaa'
p1088
ssS'htmlentitydefs'
p1089
(dp1090
g6
(dp1091
g8
S'htmlentitydefs.html'
p1092
sg10
g1089
sg11
g12
(g13
g14
NtRp1093
(dp1094
g17
I1
sg18
I0
sg19
I9
sg20
I0
sg21
I0
sg22
I9
sg23
I0
sbssg24
S's\xe6\xd7kz2Lfw\x16N?[\x90~}'
p1095
ssS'urllib2'
p1096
(dp1097
g6
(dp1098
g8
S'urllib2.html'
p1099
sg10
g1096
sg11
g12
(g13
g14
NtRp1100
(dp1101
g17
I1
sg18
I0
sg19
I820
sg20
I0
sg21
I0
sg22
I820
sg23
I0
sbssg24
S'T\xd9\xc3\xf7\x15\x95I\x98R6Rck\xe72\x92'
p1102
ssS'numpy_lib_arraysetops'
p1103
(dp1104
g6
(dp1105
g8
S'numpy_lib_arraysetops.html'
p1106
sg10
S'numpy.lib.arraysetops'
p1107
sg11
g12
(g13
g14
NtRp1108
(dp1109
g17
I1
sg18
I0
sg19
I98
sg20
I0
sg21
I0
sg22
I87
sg23
I0
sbssg24
S'S\xb4\xb2\x9c\x8f\xb02r7+\x96\xc3_\xa9qQ'
p1110
ssS'numpy_lib_format'
p1111
(dp1112
g6
(dp1113
g8
S'numpy_lib_format.html'
p1114
sg10
S'numpy.lib.format'
p1115
sg11
g12
(g13
g14
NtRp1116
(dp1117
g17
I1
sg18
I0
sg19
I178
sg20
I0
sg21
I0
sg22
I157
sg23
I0
sbssg24
S'\xe7\x89\xbc\xd8()(\xc6\xb9wF\x82qK`\xb5'
p1118
ssS'numpy_lib'
p1119
(dp1120
g6
(dp1121
g8
S'numpy_lib.html'
p1122
sg10
S'numpy.lib'
p1123
sg11
g12
(g13
g14
NtRp1124
(dp1125
g17
I1
sg18
I0
sg19
I38
sg20
I0
sg21
I0
sg22
I0
sg23
I0
sbssg24
S'PM\xbe\xe6\n\x06r\x9d\xb80\xfe\x93\xdb\x94\x88\x18'
p1126
ssS'numpy_fft_helper'
p1127
(dp1128
g6
(dp1129
g8
S'numpy_fft_helper.html'
p1130
sg10
S'numpy.fft.helper'
p1131
sg11
g12
(g13
g14
NtRp1132
(dp1133
g17
I1
sg18
I0
sg19
I51
sg20
I0
sg21
I0
sg22
I42
sg23
I0
sbssg24
S'\x10\xb4\xb5f\xf8\x0f\xb0\x95K\xc4\xc0B\xf3^\xd7\xe2'
p1134
ssS'TwitterSearcher3'
p1135
(dp1136
g6
(dp1137
g983
S'TwitterSearcher3.html'
p1138
sg985
S'TwitterSearcher3'
p1139
sg987
g12
(g13
g14
NtRp1140
(dp1141
g17
I1
sg18
I0
sg19
I102
sg20
I0
sg21
I0
sg22
I40
sg23
I0
sbssg24
S'\xcb\x96Ih\xde\xca\xf3\xe5\xbc\xe3\xfez\xe2>\x1f^'
p1142
ssS'gzip'
p1143
(dp1144
g6
(dp1145
g8
S'gzip.html'
p1146
sg10
g1143
sg11
g12
(g13
g14
NtRp1147
(dp1148
g17
I1
sg18
I0
sg19
I320
sg20
I0
sg21
I0
sg22
I320
sg23
I0
sbssg24
S'\xd0<\x1d\xfdK \xd7\x8b\x89\xca\xfa\xe5\x7f\x00R\xda'
p1149
ssS'webbrowser'
p1150
(dp1151
g6
(dp1152
g8
S'webbrowser.html'
p1153
sg10
g1150
sg11
g12
(g13
g14
NtRp1154
(dp1155
g17
I1
sg18
I0
sg19
I413
sg20
I0
sg21
I0
sg22
I413
sg23
I0
sbssg24
S'S[G\xfe\xe2A\x8d\xc7\x08\x9e\x9c\x90[\xcf\xd7\x15'
p1156
ssS'numpy_ma'
p1157
(dp1158
g6
(dp1159
g8
S'numpy_ma.html'
p1160
sg10
S'numpy.ma'
p1161
sg11
g12
(g13
g14
NtRp1162
(dp1163
g17
I1
sg18
I0
sg19
I15
sg20
I0
sg21
I0
sg22
I0
sg23
I0
sbssg24
S"R\xdc$PQ\xdc\xea\xa4J\xba\xb1\xb4'\xbenS"
p1164
ssS'hmac'
p1165
(dp1166
g6
(dp1167
g8
S'hmac.html'
p1168
sg10
g1165
sg11
g12
(g13
g14
NtRp1169
(dp1170
g17
I1
sg18
I0
sg19
I55
sg20
I0
sg21
I0
sg22
I55
sg23
I0
sbssg24
S'\xe9y\xa0\xd9;\x03\xa1&\xd71\xbdjjm\xb4\xf2'
p1171
sssS'version'
p1172
S'3.7.1'
p1173
sS'settings'
p1174
S'\x0c?\xc5oy\x06\xab\x94\x97\xc9U$G\xe6W '
p1175
sS'format'
p1176
I1
s.